; Function Attrs: mustprogress uwtable
define noundef nonnull align 1 dereferenceable(1) ptr @_ZNK3gmx19DeviceStreamManager12bondedStreamEv(ptr nocapture noundef nonnull readonly align 8 dereferenceable(8) %0) local_unnamed_addr #0 align 2 {
  %2 = load ptr, ptr %0, align 8
  %3 = getelementptr inbounds i8, ptr %2, i64 48
  %4 = load i8, ptr %3, align 8
  %5 = trunc i8 %4 to i1
  br i1 %5, label %6, label %11

6:                                                ; preds = %1
  %7 = getelementptr inbounds i8, ptr %2, i64 16
  %8 = load ptr, ptr %7, align 8
  %9 = tail call noundef zeroext i1 @_ZNK12DeviceStream7isValidEv(ptr noundef nonnull align 1 dereferenceable(1) %8)
  br i1 %9, label %16, label %10

10:                                               ; preds = %6
  tail call void @_ZN3gmx8internal13assertHandlerEPKcS2_S2_S2_i(ptr noundef nonnull @.str.1, ptr noundef nonnull @.str.2, ptr noundef nonnull @"__PRETTY_FUNCTION__._ZZNK3gmx19DeviceStreamManager12bondedStreamEvENK3$_0clEv", ptr noundef nonnull @.str.3, i32 noundef 178) #16
  unreachable

11:                                               ; preds = %1
  %12 = getelementptr inbounds i8, ptr %2, i64 8
  %13 = load ptr, ptr %12, align 8
  %14 = tail call noundef zeroext i1 @_ZNK12DeviceStream7isValidEv(ptr noundef nonnull align 1 dereferenceable(1) %13)
  br i1 %14, label %16, label %15

15:                                               ; preds = %11
  tail call void @_ZN3gmx8internal13assertHandlerEPKcS2_S2_S2_i(ptr noundef nonnull @.str.4, ptr noundef nonnull @.str.5, ptr noundef nonnull @"__PRETTY_FUNCTION__._ZZNK3gmx19DeviceStreamManager12bondedStreamEvENK3$_0clEv", ptr noundef nonnull @.str.3, i32 noundef 185) #16
  unreachable

16:                                               ; preds = %11, %6
  %.sink2 = phi i64 [ 16, %6 ], [ 8, %11 ]
  %17 = load ptr, ptr %0, align 8
  %18 = getelementptr inbounds i8, ptr %17, i64 %.sink2
  %.0 = load ptr, ptr %18, align 8
  ret ptr %.0
}